target datalayout = "e-m:e-p270:32:32-p271:32:32-p272:64:64-i64:64-i128:128-f80:128-n8:16:32:64-S128"
target triple = "x86_64-pc-linux-gnu"

%struct.pysqlite_state = type { ptr, ptr, ptr, ptr, ptr, ptr, ptr, ptr, ptr, ptr, ptr, ptr, ptr, i32, i32, ptr, ptr, ptr, ptr, ptr, ptr, ptr, ptr, ptr, ptr, ptr, ptr, ptr, ptr }

@.str.208 = private unnamed_addr constant [74 x i8] c"Unable to interpret SQLite threadsafety mode. Got %d, expected 0, 1, or 2\00", align 1

; Function Attrs: nounwind uwtable
define internal i32 @get_threadsafety(ptr noundef %0) #0 {
  %2 = alloca i32, align 4
  %3 = alloca ptr, align 8
  %4 = alloca i32, align 4
  %5 = alloca i32, align 4
  store ptr %0, ptr %3, align 8, !tbaa !17
  call void @llvm.lifetime.start.p0(i64 4, ptr %4) #6
  %6 = call i32 @sqlite3_threadsafe()
  store i32 %6, ptr %4, align 4, !tbaa !3
  %7 = load i32, ptr %4, align 4, !tbaa !3
  switch i32 %7, label %11 [
    i32 0, label %8
    i32 1, label %9
    i32 2, label %10
  ]

8:                                                ; preds = %1
  store i32 0, ptr %2, align 4
  store i32 1, ptr %5, align 4
  br label %17

9:                                                ; preds = %1
  store i32 3, ptr %2, align 4
  store i32 1, ptr %5, align 4
  br label %17

10:                                               ; preds = %1
  store i32 1, ptr %2, align 4
  store i32 1, ptr %5, align 4
  br label %17

11:                                               ; preds = %1
  %12 = load ptr, ptr %3, align 8, !tbaa !17
  %13 = getelementptr inbounds nuw %struct.pysqlite_state, ptr %12, i32 0, i32 4
  %14 = load ptr, ptr %13, align 8, !tbaa !24
  %15 = load i32, ptr %4, align 4, !tbaa !3
  %16 = call ptr (ptr, ptr, ...) @PyErr_Format(ptr noundef %14, ptr noundef @.str.208, i32 noundef %15)
  store i32 -1, ptr %2, align 4
  store i32 1, ptr %5, align 4
  br label %17

17:                                               ; preds = %11, %10, %9, %8
  call void @llvm.lifetime.end.p0(i64 4, ptr %4) #6
  %18 = load i32, ptr %2, align 4
  ret i32 %18
}