; Function Attrs: nounwind uwtable
define internal fastcc range(i32 -1, 4) i32 @get_threadsafety(ptr noundef readonly captures(none) %0) unnamed_addr #2 {
  %2 = tail call i32 @sqlite3_threadsafe() #5
  %3 = icmp ult i32 %2, 3
  br i1 %3, label %switch.lookup, label %4

4:                                                ; preds = %1
  %5 = getelementptr inbounds nuw i8, ptr %0, i64 32
  %6 = load ptr, ptr %5, align 8, !tbaa !21
  %7 = tail call ptr (ptr, ptr, ...) @PyErr_Format(ptr noundef %6, ptr noundef nonnull @.str.208, i32 noundef %2) #5
  br label %9

switch.lookup:                                    ; preds = %1
  %8 = zext nneg i32 %2 to i64
  %switch.gep = getelementptr inbounds nuw [3 x i32], ptr @switch.table.get_threadsafety, i64 0, i64 %8
  %switch.load = load i32, ptr %switch.gep, align 4
  br label %9

9:                                                ; preds = %switch.lookup, %4
  %.0 = phi i32 [ -1, %4 ], [ %switch.load, %switch.lookup ]
  ret i32 %.0
}